target datalayout = "e-m:e-p270:32:32-p271:32:32-p272:64:64-i64:64-i128:128-f80:128-n8:16:32:64-S128"
target triple = "x86_64-pc-linux-gnu"

%struct.mbedtls_mpi = type { ptr, i16, i16 }

@mbedtls_psa_ffdh_set_prime_generator.dhm_G_2048 = internal constant [1 x i8] c"\02", align 1
@mbedtls_psa_ffdh_set_prime_generator.dhm_G_3072 = internal constant [1 x i8] c"\02", align 1
@mbedtls_psa_ffdh_set_prime_generator.dhm_G_4096 = internal constant [1 x i8] c"\02", align 1
@mbedtls_psa_ffdh_set_prime_generator.dhm_G_6144 = internal constant [1 x i8] c"\02", align 1
@mbedtls_psa_ffdh_set_prime_generator.dhm_G_8192 = internal constant [1 x i8] c"\02", align 1

; Function Attrs: nounwind uwtable
define internal i32 @mbedtls_psa_ffdh_set_prime_generator(i64 noundef %0, ptr noundef %1, ptr noundef %2) #0 {
  %4 = alloca i32, align 4
  %5 = alloca i64, align 8
  %6 = alloca ptr, align 8
  %7 = alloca ptr, align 8
  %8 = alloca ptr, align 8
  %9 = alloca ptr, align 8
  %10 = alloca i64, align 8
  %11 = alloca i64, align 8
  %12 = alloca i32, align 4
  %13 = alloca i32, align 4
  store i64 %0, ptr %5, align 8, !tbaa !10
  store ptr %1, ptr %6, align 8, !tbaa !22
  store ptr %2, ptr %7, align 8, !tbaa !22
  call void @llvm.lifetime.start.p0(i64 8, ptr %8) #6
  store ptr null, ptr %8, align 8, !tbaa !8
  call void @llvm.lifetime.start.p0(i64 8, ptr %9) #6
  store ptr null, ptr %9, align 8, !tbaa !8
  call void @llvm.lifetime.start.p0(i64 8, ptr %10) #6
  store i64 0, ptr %10, align 8, !tbaa !10
  call void @llvm.lifetime.start.p0(i64 8, ptr %11) #6
  store i64 0, ptr %11, align 8, !tbaa !10
  call void @llvm.lifetime.start.p0(i64 4, ptr %12) #6
  store i32 -110, ptr %12, align 4, !tbaa !14
  %14 = load ptr, ptr %6, align 8, !tbaa !22
  %15 = icmp eq ptr %14, null
  br i1 %15, label %16, label %20

16:                                               ; preds = %3
  %17 = load ptr, ptr %7, align 8, !tbaa !22
  %18 = icmp eq ptr %17, null
  br i1 %18, label %19, label %20

19:                                               ; preds = %16
  store i32 -135, ptr %4, align 4
  store i32 1, ptr %13, align 4
  br label %64

20:                                               ; preds = %16, %3
  %21 = load i64, ptr %5, align 8, !tbaa !10
  switch i64 %21, label %27 [
    i64 256, label %22
    i64 384, label %23
    i64 512, label %24
    i64 768, label %25
    i64 1024, label %26
  ]

22:                                               ; preds = %20
  store ptr @mbedtls_psa_ffdh_set_prime_generator.dhm_P_2048, ptr %8, align 8, !tbaa !8
  store ptr @mbedtls_psa_ffdh_set_prime_generator.dhm_G_2048, ptr %9, align 8, !tbaa !8
  store i64 256, ptr %10, align 8, !tbaa !10
  store i64 1, ptr %11, align 8, !tbaa !10
  br label %28

23:                                               ; preds = %20
  store ptr @mbedtls_psa_ffdh_set_prime_generator.dhm_P_3072, ptr %8, align 8, !tbaa !8
  store ptr @mbedtls_psa_ffdh_set_prime_generator.dhm_G_3072, ptr %9, align 8, !tbaa !8
  store i64 384, ptr %10, align 8, !tbaa !10
  store i64 1, ptr %11, align 8, !tbaa !10
  br label %28

24:                                               ; preds = %20
  store ptr @mbedtls_psa_ffdh_set_prime_generator.dhm_P_4096, ptr %8, align 8, !tbaa !8
  store ptr @mbedtls_psa_ffdh_set_prime_generator.dhm_G_4096, ptr %9, align 8, !tbaa !8
  store i64 512, ptr %10, align 8, !tbaa !10
  store i64 1, ptr %11, align 8, !tbaa !10
  br label %28

25:                                               ; preds = %20
  store ptr @mbedtls_psa_ffdh_set_prime_generator.dhm_P_6144, ptr %8, align 8, !tbaa !8
  store ptr @mbedtls_psa_ffdh_set_prime_generator.dhm_G_6144, ptr %9, align 8, !tbaa !8
  store i64 768, ptr %10, align 8, !tbaa !10
  store i64 1, ptr %11, align 8, !tbaa !10
  br label %28

26:                                               ; preds = %20
  store ptr @mbedtls_psa_ffdh_set_prime_generator.dhm_P_8192, ptr %8, align 8, !tbaa !8
  store ptr @mbedtls_psa_ffdh_set_prime_generator.dhm_G_8192, ptr %9, align 8, !tbaa !8
  store i64 1024, ptr %10, align 8, !tbaa !10
  store i64 1, ptr %11, align 8, !tbaa !10
  br label %28

27:                                               ; preds = %20
  store i32 -135, ptr %4, align 4
  store i32 1, ptr %13, align 4
  br label %64

28:                                               ; preds = %26, %25, %24, %23, %22
  %29 = load ptr, ptr %6, align 8, !tbaa !22
  %30 = icmp ne ptr %29, null
  br i1 %30, label %31, label %42

31:                                               ; preds = %28
  br label %32

32:                                               ; preds = %31
  %33 = load ptr, ptr %6, align 8, !tbaa !22
  %34 = load ptr, ptr %8, align 8, !tbaa !8
  %35 = load i64, ptr %10, align 8, !tbaa !10
  %36 = call i32 @mbedtls_mpi_read_binary(ptr noundef %33, ptr noundef %34, i64 noundef %35)
  store i32 %36, ptr %12, align 4, !tbaa !14
  %37 = icmp ne i32 %36, 0
  br i1 %37, label %38, label %39

38:                                               ; preds = %32
  br label %57

39:                                               ; preds = %32
  br label %40

40:                                               ; preds = %39
  br label %41

41:                                               ; preds = %40
  br label %42

42:                                               ; preds = %41, %28
  %43 = load ptr, ptr %7, align 8, !tbaa !22
  %44 = icmp ne ptr %43, null
  br i1 %44, label %45, label %56

45:                                               ; preds = %42
  br label %46

46:                                               ; preds = %45
  %47 = load ptr, ptr %7, align 8, !tbaa !22
  %48 = load ptr, ptr %9, align 8, !tbaa !8
  %49 = load i64, ptr %11, align 8, !tbaa !10
  %50 = call i32 @mbedtls_mpi_read_binary(ptr noundef %47, ptr noundef %48, i64 noundef %49)
  store i32 %50, ptr %12, align 4, !tbaa !14
  %51 = icmp ne i32 %50, 0
  br i1 %51, label %52, label %53

52:                                               ; preds = %46
  br label %57

53:                                               ; preds = %46
  br label %54

54:                                               ; preds = %53
  br label %55

55:                                               ; preds = %54
  br label %56

56:                                               ; preds = %55, %42
  br label %57

57:                                               ; preds = %56, %52, %38
  %58 = load i32, ptr %12, align 4, !tbaa !14
  %59 = icmp ne i32 %58, 0
  br i1 %59, label %60, label %63

60:                                               ; preds = %57
  %61 = load i32, ptr %12, align 4, !tbaa !14
  %62 = call i32 @mbedtls_to_psa_error(i32 noundef %61)
  store i32 %62, ptr %4, align 4
  store i32 1, ptr %13, align 4
  br label %64

63:                                               ; preds = %57
  store i32 0, ptr %4, align 4
  store i32 1, ptr %13, align 4
  br label %64

64:                                               ; preds = %63, %60, %27, %19
  call void @llvm.lifetime.end.p0(i64 4, ptr %12) #6
  call void @llvm.lifetime.end.p0(i64 8, ptr %11) #6
  call void @llvm.lifetime.end.p0(i64 8, ptr %10) #6
  call void @llvm.lifetime.end.p0(i64 8, ptr %9) #6
  call void @llvm.lifetime.end.p0(i64 8, ptr %8) #6
  %65 = load i32, ptr %4, align 4
  ret i32 %65
}

; Function Attrs: nounwind uwtable
define hidden i32 @mbedtls_psa_ffdh_generate_key(ptr noundef %0, ptr noundef %1, i64 noundef %2, ptr noundef %3) #0 {
  %5 = alloca i32, align 4
  %6 = alloca ptr, align 8
  %7 = alloca ptr, align 8
  %8 = alloca i64, align 8
  %9 = alloca ptr, align 8
  %10 = alloca %struct.mbedtls_mpi, align 8
  %11 = alloca %struct.mbedtls_mpi, align 8
  %12 = alloca i32, align 4
  %13 = alloca i32, align 4
  %14 = alloca i32, align 4
  store ptr %0, ptr %6, align 8, !tbaa !3
  store ptr %1, ptr %7, align 8, !tbaa !8
  store i64 %2, ptr %8, align 8, !tbaa !10
  store ptr %3, ptr %9, align 8, !tbaa !12
  call void @llvm.lifetime.start.p0(i64 16, ptr %10) #6
  call void @llvm.lifetime.start.p0(i64 16, ptr %11) #6
  call void @llvm.lifetime.start.p0(i64 4, ptr %12) #6
  store i32 -110, ptr %12, align 4, !tbaa !14
  call void @llvm.lifetime.start.p0(i64 4, ptr %13) #6
  store i32 -151, ptr %13, align 4, !tbaa !14
  call void @mbedtls_mpi_init(ptr noundef %11)
  call void @mbedtls_mpi_init(ptr noundef %10)
  %15 = load i64, ptr %8, align 8, !tbaa !10
  %16 = call i32 @mbedtls_psa_ffdh_set_prime_generator(i64 noundef %15, ptr noundef %11, ptr noundef null)
  store i32 %16, ptr %13, align 4, !tbaa !14
  %17 = load i32, ptr %13, align 4, !tbaa !14
  %18 = icmp ne i32 %17, 0
  br i1 %18, label %19, label %20

19:                                               ; preds = %4
  br label %46

20:                                               ; preds = %4
  br label %21

21:                                               ; preds = %20
  %22 = call i32 @mbedtls_mpi_random(ptr noundef %10, i64 noundef 3, ptr noundef %11, ptr noundef @mbedtls_psa_get_random, ptr noundef null)
  store i32 %22, ptr %12, align 4, !tbaa !14
  %23 = icmp ne i32 %22, 0
  br i1 %23, label %24, label %25

24:                                               ; preds = %21
  br label %46

25:                                               ; preds = %21
  br label %26

26:                                               ; preds = %25
  br label %27

27:                                               ; preds = %26
  br label %28

28:                                               ; preds = %27
  %29 = call i32 @mbedtls_mpi_sub_int(ptr noundef %10, ptr noundef %10, i64 noundef 1)
  store i32 %29, ptr %12, align 4, !tbaa !14
  %30 = icmp ne i32 %29, 0
  br i1 %30, label %31, label %32

31:                                               ; preds = %28
  br label %46

32:                                               ; preds = %28
  br label %33

33:                                               ; preds = %32
  br label %34

34:                                               ; preds = %33
  br label %35

35:                                               ; preds = %34
  %36 = load ptr, ptr %7, align 8, !tbaa !8
  %37 = load i64, ptr %8, align 8, !tbaa !10
  %38 = call i32 @mbedtls_mpi_write_binary(ptr noundef %10, ptr noundef %36, i64 noundef %37)
  store i32 %38, ptr %12, align 4, !tbaa !14
  %39 = icmp ne i32 %38, 0
  br i1 %39, label %40, label %41

40:                                               ; preds = %35
  br label %46

41:                                               ; preds = %35
  br label %42

42:                                               ; preds = %41
  br label %43

43:                                               ; preds = %42
  %44 = load i64, ptr %8, align 8, !tbaa !10
  %45 = load ptr, ptr %9, align 8, !tbaa !12
  store i64 %44, ptr %45, align 8, !tbaa !10
  br label %46

46:                                               ; preds = %43, %40, %31, %24, %19
  call void @mbedtls_mpi_free(ptr noundef %11)
  call void @mbedtls_mpi_free(ptr noundef %10)
  %47 = load i32, ptr %13, align 4, !tbaa !14
  %48 = icmp eq i32 %47, 0
  br i1 %48, label %49, label %55

49:                                               ; preds = %46
  %50 = load i32, ptr %12, align 4, !tbaa !14
  %51 = icmp ne i32 %50, 0
  br i1 %51, label %52, label %55

52:                                               ; preds = %49
  %53 = load i32, ptr %12, align 4, !tbaa !14
  %54 = call i32 @mbedtls_to_psa_error(i32 noundef %53)
  store i32 %54, ptr %5, align 4
  store i32 1, ptr %14, align 4
  br label %57

55:                                               ; preds = %49, %46
  %56 = load i32, ptr %13, align 4, !tbaa !14
  store i32 %56, ptr %5, align 4
  store i32 1, ptr %14, align 4
  br label %57

57:                                               ; preds = %55, %52
  call void @llvm.lifetime.end.p0(i64 4, ptr %13) #6
  call void @llvm.lifetime.end.p0(i64 4, ptr %12) #6
  call void @llvm.lifetime.end.p0(i64 16, ptr %11) #6
  call void @llvm.lifetime.end.p0(i64 16, ptr %10) #6
  %58 = load i32, ptr %5, align 4
  ret i32 %58
}