; Function Attrs: nounwind uwtable
define hidden i32 @mbedtls_psa_ffdh_generate_key(ptr noundef readnone captures(none) %0, ptr noundef %1, i64 noundef %2, ptr noundef writeonly captures(none) %3) local_unnamed_addr #0 {
  %5 = alloca %struct.mbedtls_mpi, align 8
  %6 = alloca %struct.mbedtls_mpi, align 8
  call void @llvm.lifetime.start.p0(i64 16, ptr nonnull %5) #7
  call void @llvm.lifetime.start.p0(i64 16, ptr nonnull %6) #7
  call void @mbedtls_mpi_init(ptr noundef nonnull %6) #7
  call void @mbedtls_mpi_init(ptr noundef nonnull %5) #7
  %7 = add i64 %2, -256
  %8 = call i64 @llvm.fshl.i64(i64 %7, i64 %7, i64 57)
  %9 = icmp ult i64 %8, 7
  br i1 %9, label %switch.hole_check, label %mbedtls_psa_ffdh_set_prime_generator.exit.thread24

switch.hole_check:                                ; preds = %4
  %switch.maskindex = trunc nuw i64 %8 to i8
  %switch.shifted = lshr i8 87, %switch.maskindex
  %switch.lobit = trunc i8 %switch.shifted to i1
  br i1 %switch.lobit, label %switch.lookup, label %mbedtls_psa_ffdh_set_prime_generator.exit.thread24

switch.lookup:                                    ; preds = %switch.hole_check
  %switch.gep = getelementptr inbounds nuw [7 x ptr], ptr @switch.table.mbedtls_psa_ffdh_key_agreement, i64 0, i64 %8
  %switch.load = load ptr, ptr %switch.gep, align 8
  %switch.gep27 = getelementptr inbounds nuw [7 x i64], ptr @switch.table.mbedtls_psa_ffdh_key_agreement.6, i64 0, i64 %8
  %switch.load28 = load i64, ptr %switch.gep27, align 8
  %10 = call i32 @mbedtls_mpi_read_binary(ptr noundef nonnull %6, ptr noundef nonnull %switch.load, i64 noundef %switch.load28) #7
  %.not.i = icmp eq i32 %10, 0
  br i1 %.not.i, label %mbedtls_psa_ffdh_set_prime_generator.exit.thread, label %mbedtls_psa_ffdh_set_prime_generator.exit

mbedtls_psa_ffdh_set_prime_generator.exit:        ; preds = %switch.lookup
  %11 = call i32 @mbedtls_to_psa_error(i32 noundef %10) #7
  %.not = icmp eq i32 %11, 0
  br i1 %.not, label %mbedtls_psa_ffdh_set_prime_generator.exit.thread, label %mbedtls_psa_ffdh_set_prime_generator.exit.thread24

mbedtls_psa_ffdh_set_prime_generator.exit.thread: ; preds = %switch.lookup, %mbedtls_psa_ffdh_set_prime_generator.exit
  %12 = call i32 @mbedtls_mpi_random(ptr noundef nonnull %5, i64 noundef 3, ptr noundef nonnull %6, ptr noundef nonnull @mbedtls_psa_get_random, ptr noundef null) #7
  %.not15 = icmp eq i32 %12, 0
  br i1 %.not15, label %13, label %mbedtls_psa_ffdh_set_prime_generator.exit.thread24

13:                                               ; preds = %mbedtls_psa_ffdh_set_prime_generator.exit.thread
  %14 = call i32 @mbedtls_mpi_sub_int(ptr noundef nonnull %5, ptr noundef nonnull %5, i64 noundef 1) #7
  %.not16 = icmp eq i32 %14, 0
  br i1 %.not16, label %15, label %mbedtls_psa_ffdh_set_prime_generator.exit.thread24

15:                                               ; preds = %13
  %16 = call i32 @mbedtls_mpi_write_binary(ptr noundef nonnull %5, ptr noundef %1, i64 noundef %2) #7
  %.not17 = icmp eq i32 %16, 0
  br i1 %.not17, label %17, label %mbedtls_psa_ffdh_set_prime_generator.exit.thread24

17:                                               ; preds = %15
  store i64 %2, ptr %3, align 8, !tbaa !10
  br label %mbedtls_psa_ffdh_set_prime_generator.exit.thread24

mbedtls_psa_ffdh_set_prime_generator.exit.thread24: ; preds = %switch.hole_check, %4, %15, %13, %mbedtls_psa_ffdh_set_prime_generator.exit.thread, %mbedtls_psa_ffdh_set_prime_generator.exit, %17
  %.not22 = phi i1 [ false, %mbedtls_psa_ffdh_set_prime_generator.exit ], [ true, %mbedtls_psa_ffdh_set_prime_generator.exit.thread ], [ true, %13 ], [ true, %15 ], [ true, %17 ], [ false, %4 ], [ false, %switch.hole_check ]
  %.020.i20 = phi i32 [ %11, %mbedtls_psa_ffdh_set_prime_generator.exit ], [ 0, %mbedtls_psa_ffdh_set_prime_generator.exit.thread ], [ 0, %13 ], [ 0, %15 ], [ 0, %17 ], [ -135, %4 ], [ -135, %switch.hole_check ]
  %.0 = phi i32 [ -110, %mbedtls_psa_ffdh_set_prime_generator.exit ], [ %12, %mbedtls_psa_ffdh_set_prime_generator.exit.thread ], [ %14, %13 ], [ %16, %15 ], [ 0, %17 ], [ -110, %4 ], [ -110, %switch.hole_check ]
  call void @mbedtls_mpi_free(ptr noundef nonnull %6) #7
  call void @mbedtls_mpi_free(ptr noundef nonnull %5) #7
  %18 = icmp ne i32 %.0, 0
  %or.cond = and i1 %.not22, %18
  br i1 %or.cond, label %19, label %21

19:                                               ; preds = %mbedtls_psa_ffdh_set_prime_generator.exit.thread24
  %20 = call i32 @mbedtls_to_psa_error(i32 noundef %.0) #7
  br label %21

21:                                               ; preds = %mbedtls_psa_ffdh_set_prime_generator.exit.thread24, %19
  %.011 = phi i32 [ %20, %19 ], [ %.020.i20, %mbedtls_psa_ffdh_set_prime_generator.exit.thread24 ]
  call void @llvm.lifetime.end.p0(i64 16, ptr nonnull %6) #7
  call void @llvm.lifetime.end.p0(i64 16, ptr nonnull %5) #7
  ret i32 %.011
}